target datalayout = "e-m:e-p270:32:32-p271:32:32-p272:64:64-i64:64-i128:128-f80:128-n8:16:32:64-S128"
target triple = "x86_64-unknown-linux-gnu"

%struct.Hmac = type { %union.wc_HmacHash, [36 x i32], [36 x i32], [16 x i32], ptr, i8, i8 }
%union.wc_HmacHash = type { %struct.wc_Sha3 }
%struct.wc_Sha3 = type { [25 x i64], [200 x i8], i8, ptr }

; Function Attrs: nounwind uwtable
define internal i32 @min(i32 noundef %a, i32 noundef %b) #0 {
entry:
  %a.addr = alloca i32, align 4
  %b.addr = alloca i32, align 4
  store i32 %a, ptr %a.addr, align 4
  store i32 %b, ptr %b.addr, align 4
  %0 = load i32, ptr %a.addr, align 4
  %1 = load i32, ptr %b.addr, align 4
  %cmp = icmp ugt i32 %0, %1
  br i1 %cmp, label %cond.true, label %cond.false

cond.true:                                        ; preds = %entry
  %2 = load i32, ptr %b.addr, align 4
  br label %cond.end

cond.false:                                       ; preds = %entry
  %3 = load i32, ptr %a.addr, align 4
  br label %cond.end

cond.end:                                         ; preds = %cond.false, %cond.true
  %cond = phi i32 [ %2, %cond.true ], [ %3, %cond.false ]
  ret i32 %cond
}

; Function Attrs: nounwind uwtable
define i32 @wc_HmacInit(ptr noundef %hmac, ptr noundef %heap, i32 noundef %devId) #0 {
entry:
  %retval = alloca i32, align 4
  %hmac.addr = alloca ptr, align 8
  %heap.addr = alloca ptr, align 8
  %devId.addr = alloca i32, align 4
  %ret = alloca i32, align 4
  store ptr %hmac, ptr %hmac.addr, align 8
  store ptr %heap, ptr %heap.addr, align 8
  store i32 %devId, ptr %devId.addr, align 4
  store i32 0, ptr %ret, align 4
  %0 = load ptr, ptr %hmac.addr, align 8
  %cmp = icmp eq ptr %0, null
  br i1 %cmp, label %if.then, label %if.end

if.then:                                          ; preds = %entry
  store i32 -173, ptr %retval, align 4
  br label %return

if.end:                                           ; preds = %entry
  %1 = load ptr, ptr %hmac.addr, align 8
  call void @llvm.memset.p0.i64(ptr align 16 %1, i8 0, i64 784, i1 false)
  %2 = load ptr, ptr %hmac.addr, align 8
  %macType = getelementptr inbounds %struct.Hmac, ptr %2, i32 0, i32 5
  store i8 0, ptr %macType, align 8
  %3 = load ptr, ptr %heap.addr, align 8
  %4 = load ptr, ptr %hmac.addr, align 8
  %heap1 = getelementptr inbounds %struct.Hmac, ptr %4, i32 0, i32 4
  store ptr %3, ptr %heap1, align 16
  %5 = load i32, ptr %ret, align 4
  store i32 %5, ptr %retval, align 4
  br label %return

return:                                           ; preds = %if.end, %if.then
  %6 = load i32, ptr %retval, align 4
  ret i32 %6
}

; Function Attrs: nounwind uwtable
define i32 @wc_HmacSizeByType(i32 noundef %type) #0 {
entry:
  %retval = alloca i32, align 4
  %type.addr = alloca i32, align 4
  %ret = alloca i32, align 4
  store i32 %type, ptr %type.addr, align 4
  %0 = load i32, ptr %type.addr, align 4
  %cmp = icmp eq i32 %0, 3
  br i1 %cmp, label %if.end, label %lor.lhs.false

lor.lhs.false:                                    ; preds = %entry
  %1 = load i32, ptr %type.addr, align 4
  %cmp1 = icmp eq i32 %1, 4
  br i1 %cmp1, label %if.end, label %lor.lhs.false2

lor.lhs.false2:                                   ; preds = %lor.lhs.false
  %2 = load i32, ptr %type.addr, align 4
  %cmp3 = icmp eq i32 %2, 5
  br i1 %cmp3, label %if.end, label %lor.lhs.false4

lor.lhs.false4:                                   ; preds = %lor.lhs.false2
  %3 = load i32, ptr %type.addr, align 4
  %cmp5 = icmp eq i32 %3, 6
  br i1 %cmp5, label %if.end, label %lor.lhs.false6

lor.lhs.false6:                                   ; preds = %lor.lhs.false4
  %4 = load i32, ptr %type.addr, align 4
  %cmp7 = icmp eq i32 %4, 7
  br i1 %cmp7, label %if.end, label %lor.lhs.false8

lor.lhs.false8:                                   ; preds = %lor.lhs.false6
  %5 = load i32, ptr %type.addr, align 4
  %cmp9 = icmp eq i32 %5, 8
  br i1 %cmp9, label %if.end, label %lor.lhs.false10

lor.lhs.false10:                                  ; preds = %lor.lhs.false8
  %6 = load i32, ptr %type.addr, align 4
  %cmp11 = icmp eq i32 %6, 10
  br i1 %cmp11, label %if.end, label %lor.lhs.false12

lor.lhs.false12:                                  ; preds = %lor.lhs.false10
  %7 = load i32, ptr %type.addr, align 4
  %cmp13 = icmp eq i32 %7, 11
  br i1 %cmp13, label %if.end, label %lor.lhs.false14

lor.lhs.false14:                                  ; preds = %lor.lhs.false12
  %8 = load i32, ptr %type.addr, align 4
  %cmp15 = icmp eq i32 %8, 12
  br i1 %cmp15, label %if.end, label %lor.lhs.false16

lor.lhs.false16:                                  ; preds = %lor.lhs.false14
  %9 = load i32, ptr %type.addr, align 4
  %cmp17 = icmp eq i32 %9, 13
  br i1 %cmp17, label %if.end, label %if.then

if.then:                                          ; preds = %lor.lhs.false16
  store i32 -173, ptr %retval, align 4
  br label %return

if.end:                                           ; preds = %lor.lhs.false16, %lor.lhs.false14, %lor.lhs.false12, %lor.lhs.false10, %lor.lhs.false8, %lor.lhs.false6, %lor.lhs.false4, %lor.lhs.false2, %lor.lhs.false, %entry
  %10 = load i32, ptr %type.addr, align 4
  switch i32 %10, label %sw.default [
    i32 3, label %sw.bb
    i32 4, label %sw.bb18
    i32 5, label %sw.bb19
    i32 6, label %sw.bb20
    i32 7, label %sw.bb21
    i32 8, label %sw.bb22
    i32 10, label %sw.bb23
    i32 11, label %sw.bb24
    i32 12, label %sw.bb25
    i32 13, label %sw.bb26
  ]

sw.bb:                                            ; preds = %if.end
  store i32 16, ptr %ret, align 4
  br label %sw.epilog

sw.bb18:                                          ; preds = %if.end
  store i32 20, ptr %ret, align 4
  br label %sw.epilog

sw.bb19:                                          ; preds = %if.end
  store i32 28, ptr %ret, align 4
  br label %sw.epilog

sw.bb20:                                          ; preds = %if.end
  store i32 32, ptr %ret, align 4
  br label %sw.epilog

sw.bb21:                                          ; preds = %if.end
  store i32 48, ptr %ret, align 4
  br label %sw.epilog

sw.bb22:                                          ; preds = %if.end
  store i32 64, ptr %ret, align 4
  br label %sw.epilog

sw.bb23:                                          ; preds = %if.end
  store i32 28, ptr %ret, align 4
  br label %sw.epilog

sw.bb24:                                          ; preds = %if.end
  store i32 32, ptr %ret, align 4
  br label %sw.epilog

sw.bb25:                                          ; preds = %if.end
  store i32 48, ptr %ret, align 4
  br label %sw.epilog

sw.bb26:                                          ; preds = %if.end
  store i32 64, ptr %ret, align 4
  br label %sw.epilog

sw.default:                                       ; preds = %if.end
  store i32 -173, ptr %ret, align 4
  br label %sw.epilog

sw.epilog:                                        ; preds = %sw.default, %sw.bb26, %sw.bb25, %sw.bb24, %sw.bb23, %sw.bb22, %sw.bb21, %sw.bb20, %sw.bb19, %sw.bb18, %sw.bb
  %11 = load i32, ptr %ret, align 4
  store i32 %11, ptr %retval, align 4
  br label %return

return:                                           ; preds = %sw.epilog, %if.then
  %12 = load i32, ptr %retval, align 4
  ret i32 %12
}

; Function Attrs: nounwind uwtable
define i32 @wc_HKDF_Expand_ex(i32 noundef %type, ptr noundef %inKey, i32 noundef %inKeySz, ptr noundef %info, i32 noundef %infoSz, ptr noundef %out, i32 noundef %outSz, ptr noundef %heap, i32 noundef %devId) #0 {
entry:
  %retval = alloca i32, align 4
  %type.addr = alloca i32, align 4
  %inKey.addr = alloca ptr, align 8
  %inKeySz.addr = alloca i32, align 4
  %info.addr = alloca ptr, align 8
  %infoSz.addr = alloca i32, align 4
  %out.addr = alloca ptr, align 8
  %outSz.addr = alloca i32, align 4
  %heap.addr = alloca ptr, align 8
  %devId.addr = alloca i32, align 4
  %tmp = alloca [64 x i8], align 16
  %myHmac = alloca [1 x %struct.Hmac], align 16
  %ret = alloca i32, align 4
  %outIdx = alloca i32, align 4
  %hashSz = alloca i32, align 4
  %n = alloca i8, align 1
  %tmpSz = alloca i32, align 4
  %left = alloca i32, align 4
  store i32 %type, ptr %type.addr, align 4
  store ptr %inKey, ptr %inKey.addr, align 8
  store i32 %inKeySz, ptr %inKeySz.addr, align 4
  store ptr %info, ptr %info.addr, align 8
  store i32 %infoSz, ptr %infoSz.addr, align 4
  store ptr %out, ptr %out.addr, align 8
  store i32 %outSz, ptr %outSz.addr, align 4
  store ptr %heap, ptr %heap.addr, align 8
  store i32 %devId, ptr %devId.addr, align 4
  store i32 0, ptr %ret, align 4
  store i32 0, ptr %outIdx, align 4
  store i8 1, ptr %n, align 1
  %0 = load i32, ptr %type.addr, align 4
  %call = call i32 @wc_HmacSizeByType(i32 noundef %0)
  store i32 %call, ptr %ret, align 4
  %1 = load i32, ptr %ret, align 4
  %cmp = icmp slt i32 %1, 0
  br i1 %cmp, label %if.then, label %if.end

if.then:                                          ; preds = %entry
  %2 = load i32, ptr %ret, align 4
  store i32 %2, ptr %retval, align 4
  br label %return

if.end:                                           ; preds = %entry
  %3 = load i32, ptr %ret, align 4
  store i32 %3, ptr %hashSz, align 4
  %4 = load ptr, ptr %out.addr, align 8
  %cmp1 = icmp eq ptr %4, null
  br i1 %cmp1, label %if.then5, label %lor.lhs.false

lor.lhs.false:                                    ; preds = %if.end
  %5 = load i32, ptr %outSz.addr, align 4
  %6 = load i32, ptr %hashSz, align 4
  %div = udiv i32 %5, %6
  %7 = load i32, ptr %outSz.addr, align 4
  %8 = load i32, ptr %hashSz, align 4
  %rem = urem i32 %7, %8
  %cmp2 = icmp ne i32 %rem, 0
  %conv = zext i1 %cmp2 to i32
  %add = add i32 %div, %conv
  %cmp3 = icmp ugt i32 %add, 255
  br i1 %cmp3, label %if.then5, label %if.end6

if.then5:                                         ; preds = %lor.lhs.false, %if.end
  store i32 -173, ptr %retval, align 4
  br label %return

if.end6:                                          ; preds = %lor.lhs.false
  %arraydecay = getelementptr inbounds [1 x %struct.Hmac], ptr %myHmac, i64 0, i64 0
  %9 = load ptr, ptr %heap.addr, align 8
  %10 = load i32, ptr %devId.addr, align 4
  %call7 = call i32 @wc_HmacInit(ptr noundef %arraydecay, ptr noundef %9, i32 noundef %10)
  store i32 %call7, ptr %ret, align 4
  %11 = load i32, ptr %ret, align 4
  %cmp8 = icmp ne i32 %11, 0
  br i1 %cmp8, label %if.then10, label %if.end11

if.then10:                                        ; preds = %if.end6
  %12 = load i32, ptr %ret, align 4
  store i32 %12, ptr %retval, align 4
  br label %return

if.end11:                                         ; preds = %if.end6
  %arraydecay12 = getelementptr inbounds [64 x i8], ptr %tmp, i64 0, i64 0
  call void @llvm.memset.p0.i64(ptr align 16 %arraydecay12, i8 0, i64 64, i1 false)
  br label %while.cond

while.cond:                                       ; preds = %if.end49, %if.end11
  %13 = load i32, ptr %outIdx, align 4
  %14 = load i32, ptr %outSz.addr, align 4
  %cmp13 = icmp ult i32 %13, %14
  br i1 %cmp13, label %while.body, label %while.end

while.body:                                       ; preds = %while.cond
  %15 = load i8, ptr %n, align 1
  %conv15 = zext i8 %15 to i32
  %cmp16 = icmp eq i32 %conv15, 1
  br i1 %cmp16, label %cond.true, label %cond.false

cond.true:                                        ; preds = %while.body
  br label %cond.end

cond.false:                                       ; preds = %while.body
  %16 = load i32, ptr %hashSz, align 4
  br label %cond.end

cond.end:                                         ; preds = %cond.false, %cond.true
  %cond = phi i32 [ 0, %cond.true ], [ %16, %cond.false ]
  store i32 %cond, ptr %tmpSz, align 4
  %17 = load i32, ptr %outSz.addr, align 4
  %18 = load i32, ptr %outIdx, align 4
  %sub = sub i32 %17, %18
  store i32 %sub, ptr %left, align 4
  %arraydecay18 = getelementptr inbounds [1 x %struct.Hmac], ptr %myHmac, i64 0, i64 0
  %19 = load i32, ptr %type.addr, align 4
  %20 = load ptr, ptr %inKey.addr, align 8
  %21 = load i32, ptr %inKeySz.addr, align 4
  %call19 = call i32 @wc_HmacSetKey(ptr noundef %arraydecay18, i32 noundef %19, ptr noundef %20, i32 noundef %21)
  store i32 %call19, ptr %ret, align 4
  %22 = load i32, ptr %ret, align 4
  %cmp20 = icmp ne i32 %22, 0
  br i1 %cmp20, label %if.then22, label %if.end23

if.then22:                                        ; preds = %cond.end
  br label %while.end

if.end23:                                         ; preds = %cond.end
  %arraydecay24 = getelementptr inbounds [1 x %struct.Hmac], ptr %myHmac, i64 0, i64 0
  %arraydecay25 = getelementptr inbounds [64 x i8], ptr %tmp, i64 0, i64 0
  %23 = load i32, ptr %tmpSz, align 4
  %call26 = call i32 @wc_HmacUpdate(ptr noundef %arraydecay24, ptr noundef %arraydecay25, i32 noundef %23)
  store i32 %call26, ptr %ret, align 4
  %24 = load i32, ptr %ret, align 4
  %cmp27 = icmp ne i32 %24, 0
  br i1 %cmp27, label %if.then29, label %if.end30

if.then29:                                        ; preds = %if.end23
  br label %while.end

if.end30:                                         ; preds = %if.end23
  %arraydecay31 = getelementptr inbounds [1 x %struct.Hmac], ptr %myHmac, i64 0, i64 0
  %25 = load ptr, ptr %info.addr, align 8
  %26 = load i32, ptr %infoSz.addr, align 4
  %call32 = call i32 @wc_HmacUpdate(ptr noundef %arraydecay31, ptr noundef %25, i32 noundef %26)
  store i32 %call32, ptr %ret, align 4
  %27 = load i32, ptr %ret, align 4
  %cmp33 = icmp ne i32 %27, 0
  br i1 %cmp33, label %if.then35, label %if.end36

if.then35:                                        ; preds = %if.end30
  br label %while.end

if.end36:                                         ; preds = %if.end30
  %arraydecay37 = getelementptr inbounds [1 x %struct.Hmac], ptr %myHmac, i64 0, i64 0
  %call38 = call i32 @wc_HmacUpdate(ptr noundef %arraydecay37, ptr noundef %n, i32 noundef 1)
  store i32 %call38, ptr %ret, align 4
  %28 = load i32, ptr %ret, align 4
  %cmp39 = icmp ne i32 %28, 0
  br i1 %cmp39, label %if.then41, label %if.end42

if.then41:                                        ; preds = %if.end36
  br label %while.end

if.end42:                                         ; preds = %if.end36
  %arraydecay43 = getelementptr inbounds [1 x %struct.Hmac], ptr %myHmac, i64 0, i64 0
  %arraydecay44 = getelementptr inbounds [64 x i8], ptr %tmp, i64 0, i64 0
  %call45 = call i32 @wc_HmacFinal(ptr noundef %arraydecay43, ptr noundef %arraydecay44)
  store i32 %call45, ptr %ret, align 4
  %29 = load i32, ptr %ret, align 4
  %cmp46 = icmp ne i32 %29, 0
  br i1 %cmp46, label %if.then48, label %if.end49

if.then48:                                        ; preds = %if.end42
  br label %while.end

if.end49:                                         ; preds = %if.end42
  %30 = load i32, ptr %left, align 4
  %31 = load i32, ptr %hashSz, align 4
  %call50 = call i32 @min(i32 noundef %30, i32 noundef %31)
  store i32 %call50, ptr %left, align 4
  %32 = load ptr, ptr %out.addr, align 8
  %33 = load i32, ptr %outIdx, align 4
  %idx.ext = zext i32 %33 to i64
  %add.ptr = getelementptr inbounds i8, ptr %32, i64 %idx.ext
  %arraydecay51 = getelementptr inbounds [64 x i8], ptr %tmp, i64 0, i64 0
  %34 = load i32, ptr %left, align 4
  %conv52 = zext i32 %34 to i64
  call void @llvm.memcpy.p0.p0.i64(ptr align 1 %add.ptr, ptr align 16 %arraydecay51, i64 %conv52, i1 false)
  %35 = load i32, ptr %hashSz, align 4
  %36 = load i32, ptr %outIdx, align 4
  %add53 = add i32 %36, %35
  store i32 %add53, ptr %outIdx, align 4
  %37 = load i8, ptr %n, align 1
  %inc = add i8 %37, 1
  store i8 %inc, ptr %n, align 1
  br label %while.cond, !llvm.loop !9

while.end:                                        ; preds = %if.then48, %if.then41, %if.then35, %if.then29, %if.then22, %while.cond
  %arraydecay54 = getelementptr inbounds [1 x %struct.Hmac], ptr %myHmac, i64 0, i64 0
  call void @wc_HmacFree(ptr noundef %arraydecay54)
  %38 = load i32, ptr %ret, align 4
  store i32 %38, ptr %retval, align 4
  br label %return

return:                                           ; preds = %while.end, %if.then10, %if.then5, %if.then
  %39 = load i32, ptr %retval, align 4
  ret i32 %39
}