; Function Attrs: nounwind uwtable
define i32 @wc_HKDF_Expand_ex(i32 noundef %type, ptr noundef %inKey, i32 noundef %inKeySz, ptr noundef %info, i32 noundef %infoSz, ptr noundef writeonly %out, i32 noundef %outSz, ptr noundef %heap, i32 %devId) local_unnamed_addr #1 {
entry:
  %tmp = alloca [64 x i8], align 16
  %myHmac = alloca [1 x %struct.Hmac], align 16
  %n = alloca i8, align 1
  store i8 1, ptr %n, align 1
  %switch.tableidx = add i32 %type, -3
  %0 = icmp ult i32 %switch.tableidx, 11
  br i1 %0, label %switch.hole_check, label %return

switch.hole_check:                                ; preds = %entry
  %switch.maskindex = trunc nuw i32 %switch.tableidx to i16
  %switch.shifted = lshr i16 1983, %switch.maskindex
  %switch.lobit = trunc i16 %switch.shifted to i1
  br i1 %switch.lobit, label %switch.lookup, label %return

switch.lookup:                                    ; preds = %switch.hole_check
  %1 = zext nneg i32 %switch.tableidx to i64
  %switch.gep = getelementptr inbounds nuw [11 x i32], ptr @switch.table.wc_HKDF_Expand_ex, i64 0, i64 %1
  %switch.load = load i32, ptr %switch.gep, align 4
  %cmp1 = icmp eq ptr %out, null
  br i1 %cmp1, label %return, label %lor.lhs.false

lor.lhs.false:                                    ; preds = %switch.lookup
  %div = udiv i32 %outSz, %switch.load
  %rem = urem i32 %outSz, %switch.load
  %cmp2 = icmp ne i32 %rem, 0
  %conv = zext i1 %cmp2 to i32
  %add = add nuw nsw i32 %div, %conv
  %cmp3 = icmp samesign ugt i32 %add, 255
  br i1 %cmp3, label %return, label %if.end11

if.end11:                                         ; preds = %lor.lhs.false
  %heap1.i = getelementptr inbounds nuw i8, ptr %myHmac, i64 768
  call void @llvm.memset.p0.i64(ptr noundef nonnull align 16 dereferenceable(784) %myHmac, i8 0, i64 784, i1 false)
  store ptr %heap, ptr %heap1.i, align 16
  call void @llvm.memset.p0.i64(ptr noundef nonnull align 16 dereferenceable(64) %tmp, i8 0, i64 64, i1 false)
  %cmp1328.not = icmp eq i32 %outSz, 0
  br i1 %cmp1328.not, label %while.end, label %while.body

while.body:                                       ; preds = %if.end11, %if.end49
  %2 = phi i8 [ %inc, %if.end49 ], [ 1, %if.end11 ]
  %outIdx.029 = phi i32 [ %add53, %if.end49 ], [ 0, %if.end11 ]
  %sub = sub nuw i32 %outSz, %outIdx.029
  %call19 = call i32 @wc_HmacSetKey(ptr noundef nonnull %myHmac, i32 noundef %type, ptr noundef %inKey, i32 noundef %inKeySz)
  %cmp20.not = icmp eq i32 %call19, 0
  br i1 %cmp20.not, label %if.end23, label %while.end

if.end23:                                         ; preds = %while.body
  %cmp16 = icmp eq i8 %2, 1
  %cond = select i1 %cmp16, i32 0, i32 %switch.load
  %call26 = call i32 @wc_HmacUpdate(ptr noundef nonnull %myHmac, ptr noundef nonnull %tmp, i32 noundef %cond)
  %cmp27.not = icmp eq i32 %call26, 0
  br i1 %cmp27.not, label %if.end30, label %while.end

if.end30:                                         ; preds = %if.end23
  %call32 = call i32 @wc_HmacUpdate(ptr noundef nonnull %myHmac, ptr noundef %info, i32 noundef %infoSz)
  %cmp33.not = icmp eq i32 %call32, 0
  br i1 %cmp33.not, label %if.end36, label %while.end

if.end36:                                         ; preds = %if.end30
  %call38 = call i32 @wc_HmacUpdate(ptr noundef nonnull %myHmac, ptr noundef nonnull %n, i32 noundef 1)
  %cmp39.not = icmp eq i32 %call38, 0
  br i1 %cmp39.not, label %if.end42, label %while.end

if.end42:                                         ; preds = %if.end36
  %call45 = call i32 @wc_HmacFinal(ptr noundef nonnull %myHmac, ptr noundef nonnull %tmp)
  %cmp46.not = icmp eq i32 %call45, 0
  br i1 %cmp46.not, label %if.end49, label %while.end

if.end49:                                         ; preds = %if.end42
  %cond.i = call range(i32 0, 65) i32 @llvm.umin.i32(i32 %sub, i32 range(i32 0, 65) %switch.load)
  %idx.ext = zext i32 %outIdx.029 to i64
  %add.ptr = getelementptr inbounds nuw i8, ptr %out, i64 %idx.ext
  %conv52 = zext nneg i32 %cond.i to i64
  call void @llvm.memcpy.p0.p0.i64(ptr nonnull align 1 %add.ptr, ptr nonnull align 16 %tmp, i64 %conv52, i1 false)
  %add53 = add i32 %outIdx.029, %switch.load
  %3 = load i8, ptr %n, align 1
  %inc = add i8 %3, 1
  store i8 %inc, ptr %n, align 1
  %cmp13 = icmp ult i32 %add53, %outSz
  br i1 %cmp13, label %while.body, label %while.end, !llvm.loop !9

while.end:                                        ; preds = %if.end49, %while.body, %if.end23, %if.end30, %if.end36, %if.end42, %if.end11
  %ret.1 = phi i32 [ 0, %if.end11 ], [ %call45, %if.end42 ], [ %call38, %if.end36 ], [ %call32, %if.end30 ], [ %call26, %if.end23 ], [ %call19, %while.body ], [ 0, %if.end49 ]
  call void @wc_HmacFree(ptr noundef nonnull %myHmac)
  br label %return

return:                                           ; preds = %switch.hole_check, %entry, %switch.lookup, %lor.lhs.false, %while.end
  %retval.0 = phi i32 [ %ret.1, %while.end ], [ -173, %lor.lhs.false ], [ -173, %switch.lookup ], [ -173, %entry ], [ -173, %switch.hole_check ]
  ret i32 %retval.0
}